target datalayout = "e-m:e-p270:32:32-p271:32:32-p272:64:64-i64:64-i128:128-f80:128-n8:16:32:64-S128"
target triple = "x86_64-pc-linux-gnu"

%"class.google::protobuf::TextFormat::Printer" = type { i32, i8, i8, i8, i8, i8, i8, i8, i64, %"class.std::unique_ptr", %"class.std::map", %"class.std::map.5", ptr }
%"class.std::unique_ptr" = type { %"struct.std::__uniq_ptr_data" }
%"struct.std::__uniq_ptr_data" = type { %"class.std::__uniq_ptr_impl" }
%"class.std::__uniq_ptr_impl" = type { %"class.std::tuple" }
%"class.std::tuple" = type { %"struct.std::_Tuple_impl" }
%"struct.std::_Tuple_impl" = type { %"struct.std::_Head_base.1" }
%"struct.std::_Head_base.1" = type { ptr }
%"class.std::map" = type { %"class.std::_Rb_tree" }
%"class.std::_Rb_tree" = type { %"struct.std::_Rb_tree<const google::protobuf::FieldDescriptor *, std::pair<const google::protobuf::FieldDescriptor *const, std::unique_ptr<const google::protobuf::TextFormat::FastFieldValuePrinter>>, std::_Select1st<std::pair<const google::protobuf::FieldDescriptor *const, std::unique_ptr<const google::protobuf::TextFormat::FastFieldValuePrinter>>>, std::less<const google::protobuf::FieldDescriptor *>>::_Rb_tree_impl" }
%"struct.std::_Rb_tree<const google::protobuf::FieldDescriptor *, std::pair<const google::protobuf::FieldDescriptor *const, std::unique_ptr<const google::protobuf::TextFormat::FastFieldValuePrinter>>, std::_Select1st<std::pair<const google::protobuf::FieldDescriptor *const, std::unique_ptr<const google::protobuf::TextFormat::FastFieldValuePrinter>>>, std::less<const google::protobuf::FieldDescriptor *>>::_Rb_tree_impl" = type { [8 x i8], %"struct.std::_Rb_tree_header" }
%"struct.std::_Rb_tree_header" = type { %"struct.std::_Rb_tree_node_base", i64 }
%"struct.std::_Rb_tree_node_base" = type { i32, ptr, ptr, ptr }
%"class.std::map.5" = type { %"class.std::_Rb_tree.6" }
%"class.std::_Rb_tree.6" = type { %"struct.std::_Rb_tree<const google::protobuf::Descriptor *, std::pair<const google::protobuf::Descriptor *const, std::unique_ptr<const google::protobuf::TextFormat::MessagePrinter>>, std::_Select1st<std::pair<const google::protobuf::Descriptor *const, std::unique_ptr<const google::protobuf::TextFormat::MessagePrinter>>>, std::less<const google::protobuf::Descriptor *>>::_Rb_tree_impl" }
%"struct.std::_Rb_tree<const google::protobuf::Descriptor *, std::pair<const google::protobuf::Descriptor *const, std::unique_ptr<const google::protobuf::TextFormat::MessagePrinter>>, std::_Select1st<std::pair<const google::protobuf::Descriptor *const, std::unique_ptr<const google::protobuf::TextFormat::MessagePrinter>>>, std::less<const google::protobuf::Descriptor *>>::_Rb_tree_impl" = type { [8 x i8], %"struct.std::_Rb_tree_header" }
%"class.google::protobuf::TextFormat::BaseTextGenerator" = type { ptr }
%"class.google::protobuf::TextFormat::Printer::TextGenerator" = type { %"class.google::protobuf::TextFormat::BaseTextGenerator", ptr, ptr, i32, i8, i8, i8, i32, i32 }

; Function Attrs: inlinehint mustprogress nounwind uwtable
define linkonce_odr hidden void @_ZN6google8protobuf10TextFormat17BaseTextGeneratorC2Ev(ptr noundef nonnull align 8 dereferenceable(8) %0) unnamed_addr #7 comdat align 2 {
  %2 = alloca ptr, align 8
  store ptr %0, ptr %2, align 8, !tbaa !174
  %3 = load ptr, ptr %2, align 8
  store ptr getelementptr inbounds inrange(-16, 48) ({ [8 x ptr] }, ptr @_ZTVN6google8protobuf10TextFormat17BaseTextGeneratorE, i32 0, i32 0, i32 2), ptr %3, align 8, !tbaa !130
  ret void
}

; Function Attrs: mustprogress nounwind uwtable
define linkonce_odr hidden noundef zeroext i1 @_ZNK6google8protobuf10TextFormat7Printer13TextGenerator6failedEv(ptr noundef nonnull align 8 dereferenceable(40) %0) #5 comdat align 2 {
  %2 = alloca ptr, align 8
  store ptr %0, ptr %2, align 8, !tbaa !263
  %3 = load ptr, ptr %2, align 8
  %4 = getelementptr inbounds nuw %"class.google::protobuf::TextFormat::Printer::TextGenerator", ptr %3, i32 0, i32 5
  %5 = load i8, ptr %4, align 1, !tbaa !271, !range !14, !noundef !15
  %6 = trunc i8 %5 to i1
  ret i1 %6
}

; Function Attrs: mustprogress nounwind uwtable
define linkonce_odr hidden void @_ZN6google8protobuf10TextFormat7Printer13TextGeneratorC2EPNS0_2io20ZeroCopyOutputStreamEbi(ptr noundef nonnull align 8 dereferenceable(40) %0, ptr noundef %1, i1 noundef zeroext %2, i32 noundef %3) unnamed_addr #5 comdat align 2 {
  %5 = alloca ptr, align 8
  %6 = alloca ptr, align 8
  %7 = alloca i8, align 1
  %8 = alloca i32, align 4
  store ptr %0, ptr %5, align 8, !tbaa !263
  store ptr %1, ptr %6, align 8, !tbaa !258
  %9 = zext i1 %2 to i8
  store i8 %9, ptr %7, align 1, !tbaa !12
  store i32 %3, ptr %8, align 4, !tbaa !95
  %10 = load ptr, ptr %5, align 8
  call void @_ZN6google8protobuf10TextFormat17BaseTextGeneratorC2Ev(ptr noundef nonnull align 8 dereferenceable(8) %10) #3
  store ptr getelementptr inbounds inrange(-16, 48) ({ [8 x ptr] }, ptr @_ZTVN6google8protobuf10TextFormat7Printer13TextGeneratorE, i32 0, i32 0, i32 2), ptr %10, align 8, !tbaa !130
  %11 = getelementptr inbounds nuw %"class.google::protobuf::TextFormat::Printer::TextGenerator", ptr %10, i32 0, i32 1
  %12 = load ptr, ptr %6, align 8, !tbaa !258
  store ptr %12, ptr %11, align 8, !tbaa !265
  %13 = getelementptr inbounds nuw %"class.google::protobuf::TextFormat::Printer::TextGenerator", ptr %10, i32 0, i32 2
  store ptr null, ptr %13, align 8, !tbaa !268
  %14 = getelementptr inbounds nuw %"class.google::protobuf::TextFormat::Printer::TextGenerator", ptr %10, i32 0, i32 3
  store i32 0, ptr %14, align 8, !tbaa !269
  %15 = getelementptr inbounds nuw %"class.google::protobuf::TextFormat::Printer::TextGenerator", ptr %10, i32 0, i32 4
  store i8 1, ptr %15, align 4, !tbaa !270
  %16 = getelementptr inbounds nuw %"class.google::protobuf::TextFormat::Printer::TextGenerator", ptr %10, i32 0, i32 5
  store i8 0, ptr %16, align 1, !tbaa !271
  %17 = getelementptr inbounds nuw %"class.google::protobuf::TextFormat::Printer::TextGenerator", ptr %10, i32 0, i32 6
  %18 = load i8, ptr %7, align 1, !tbaa !12, !range !14, !noundef !15
  %19 = trunc i8 %18 to i1
  %20 = zext i1 %19 to i8
  store i8 %20, ptr %17, align 2, !tbaa !272
  %21 = getelementptr inbounds nuw %"class.google::protobuf::TextFormat::Printer::TextGenerator", ptr %10, i32 0, i32 7
  %22 = load i32, ptr %8, align 4, !tbaa !95
  store i32 %22, ptr %21, align 8, !tbaa !273
  %23 = getelementptr inbounds nuw %"class.google::protobuf::TextFormat::Printer::TextGenerator", ptr %10, i32 0, i32 8
  %24 = load i32, ptr %8, align 4, !tbaa !95
  store i32 %24, ptr %23, align 4, !tbaa !274
  ret void
}

; Function Attrs: mustprogress uwtable
define hidden noundef zeroext i1 @_ZNK6google8protobuf10TextFormat7Printer5PrintERKNS0_7MessageEPNS0_2io20ZeroCopyOutputStreamE(ptr noundef nonnull align 8 dereferenceable(136) %0, ptr noundef nonnull align 8 dereferenceable(16) %1, ptr noundef %2) #4 align 2 personality ptr @__gxx_personality_v0 {
  %4 = alloca ptr, align 8
  %5 = alloca ptr, align 8
  %6 = alloca ptr, align 8
  %7 = alloca %"class.google::protobuf::TextFormat::Printer::TextGenerator", align 8
  %8 = alloca ptr, align 8
  %9 = alloca i32, align 4
  store ptr %0, ptr %4, align 8, !tbaa !10
  store ptr %1, ptr %5, align 8, !tbaa !3
  store ptr %2, ptr %6, align 8, !tbaa !258
  %10 = load ptr, ptr %4, align 8
  call void @llvm.lifetime.start.p0(i64 40, ptr %7) #3
  %11 = load ptr, ptr %6, align 8, !tbaa !258
  %12 = getelementptr inbounds nuw %"class.google::protobuf::TextFormat::Printer", ptr %10, i32 0, i32 4
  %13 = load i8, ptr %12, align 1, !tbaa !42, !range !14, !noundef !15
  %14 = trunc i8 %13 to i1
  %15 = getelementptr inbounds nuw %"class.google::protobuf::TextFormat::Printer", ptr %10, i32 0, i32 0
  %16 = load i32, ptr %15, align 8, !tbaa !207
  call void @_ZN6google8protobuf10TextFormat7Printer13TextGeneratorC2EPNS0_2io20ZeroCopyOutputStreamEbi(ptr noundef nonnull align 8 dereferenceable(40) %7, ptr noundef %11, i1 noundef zeroext %14, i32 noundef %16)
  %17 = load ptr, ptr %5, align 8, !tbaa !3
  invoke void @_ZNK6google8protobuf10TextFormat7Printer5PrintERKNS0_7MessageEPNS2_13TextGeneratorE(ptr noundef nonnull align 8 dereferenceable(136) %10, ptr noundef nonnull align 8 dereferenceable(16) %17, ptr noundef %7)
          to label %18 unwind label %22

18:                                               ; preds = %3
  %19 = invoke noundef zeroext i1 @_ZNK6google8protobuf10TextFormat7Printer13TextGenerator6failedEv(ptr noundef nonnull align 8 dereferenceable(40) %7)
          to label %20 unwind label %22

20:                                               ; preds = %18
  %21 = xor i1 %19, true
  call void @_ZN6google8protobuf10TextFormat7Printer13TextGeneratorD2Ev(ptr noundef nonnull align 8 dereferenceable(40) %7) #3
  call void @llvm.lifetime.end.p0(i64 40, ptr %7) #3
  ret i1 %21

22:                                               ; preds = %18, %3
  %23 = landingpad { ptr, i32 }
          cleanup
  %24 = extractvalue { ptr, i32 } %23, 0
  store ptr %24, ptr %8, align 8
  %25 = extractvalue { ptr, i32 } %23, 1
  store i32 %25, ptr %9, align 4
  call void @_ZN6google8protobuf10TextFormat7Printer13TextGeneratorD2Ev(ptr noundef nonnull align 8 dereferenceable(40) %7) #3
  call void @llvm.lifetime.end.p0(i64 40, ptr %7) #3
  br label %26

26:                                               ; preds = %22
  %27 = load ptr, ptr %8, align 8
  %28 = load i32, ptr %9, align 4
  %29 = insertvalue { ptr, i32 } poison, ptr %27, 0
  %30 = insertvalue { ptr, i32 } %29, i32 %28, 1
  resume { ptr, i32 } %30
}