; Function Attrs: mustprogress uwtable
define hidden noundef zeroext i1 @_ZNK6google8protobuf10TextFormat7Printer5PrintERKNS0_7MessageEPNS0_2io20ZeroCopyOutputStreamE(ptr noundef nonnull align 8 dereferenceable(136) %0, ptr noundef nonnull align 8 dereferenceable(16) %1, ptr noundef %2) local_unnamed_addr #3 align 2 personality ptr @__gxx_personality_v0 {
  %4 = alloca %"class.google::protobuf::TextFormat::Printer::TextGenerator", align 8
  call void @llvm.lifetime.start.p0(i64 40, ptr nonnull %4) #31
  %5 = getelementptr inbounds nuw i8, ptr %0, i64 7
  %6 = load i8, ptr %5, align 1, !tbaa !47, !range !49, !noundef !50
  %7 = load i32, ptr %0, align 8, !tbaa !51
  store ptr getelementptr inbounds nuw inrange(-16, 48) (i8, ptr @_ZTVN6google8protobuf10TextFormat7Printer13TextGeneratorE, i64 16), ptr %4, align 8, !tbaa !24
  %8 = getelementptr inbounds nuw i8, ptr %4, i64 8
  store ptr %2, ptr %8, align 8, !tbaa !52
  %9 = getelementptr inbounds nuw i8, ptr %4, i64 16
  store ptr null, ptr %9, align 8, !tbaa !56
  %10 = getelementptr inbounds nuw i8, ptr %4, i64 24
  store i32 0, ptr %10, align 8, !tbaa !57
  %11 = getelementptr inbounds nuw i8, ptr %4, i64 28
  store i8 1, ptr %11, align 4, !tbaa !58
  %12 = getelementptr inbounds nuw i8, ptr %4, i64 29
  store i8 0, ptr %12, align 1, !tbaa !59
  %13 = getelementptr inbounds nuw i8, ptr %4, i64 30
  store i8 %6, ptr %13, align 2, !tbaa !60
  %14 = getelementptr inbounds nuw i8, ptr %4, i64 32
  store i32 %7, ptr %14, align 8, !tbaa !61
  %15 = getelementptr inbounds nuw i8, ptr %4, i64 36
  store i32 %7, ptr %15, align 4, !tbaa !62
  invoke void @_ZNK6google8protobuf10TextFormat7Printer5PrintERKNS0_7MessageEPNS2_13TextGeneratorE(ptr noundef nonnull align 8 dereferenceable(136) %0, ptr noundef nonnull align 8 dereferenceable(16) %1, ptr noundef nonnull %4)
          to label %16 unwind label %31

16:                                               ; preds = %3
  %17 = load i8, ptr %12, align 1, !tbaa !59, !range !49, !noundef !50
  %18 = trunc nuw i8 %17 to i1
  store ptr getelementptr inbounds nuw inrange(-16, 48) (i8, ptr @_ZTVN6google8protobuf10TextFormat7Printer13TextGeneratorE, i64 16), ptr %4, align 8, !tbaa !24
  br i1 %18, label %_ZN6google8protobuf10TextFormat7Printer13TextGeneratorD2Ev.exit, label %19

19:                                               ; preds = %16
  %20 = load i32, ptr %10, align 8, !tbaa !57
  %21 = icmp sgt i32 %20, 0
  br i1 %21, label %22, label %_ZN6google8protobuf10TextFormat7Printer13TextGeneratorD2Ev.exit

22:                                               ; preds = %19
  %23 = load ptr, ptr %8, align 8, !tbaa !52
  %24 = load ptr, ptr %23, align 8, !tbaa !24
  %25 = getelementptr inbounds nuw i8, ptr %24, i64 24
  %26 = load ptr, ptr %25, align 8
  invoke void %26(ptr noundef nonnull align 8 dereferenceable(8) %23, i32 noundef %20)
          to label %_ZN6google8protobuf10TextFormat7Printer13TextGeneratorD2Ev.exit unwind label %27

27:                                               ; preds = %22
  %28 = landingpad { ptr, i32 }
          catch ptr null
  %29 = extractvalue { ptr, i32 } %28, 0
  call void @__clang_call_terminate(ptr %29) #33
  unreachable

_ZN6google8protobuf10TextFormat7Printer13TextGeneratorD2Ev.exit: ; preds = %16, %19, %22
  %30 = xor i1 %18, true
  call void @llvm.lifetime.end.p0(i64 40, ptr nonnull %4) #31
  ret i1 %30

31:                                               ; preds = %3
  %32 = landingpad { ptr, i32 }
          cleanup
  call void @_ZN6google8protobuf10TextFormat7Printer13TextGeneratorD2Ev(ptr noundef nonnull align 8 dereferenceable(40) %4) #31
  call void @llvm.lifetime.end.p0(i64 40, ptr nonnull %4) #31
  resume { ptr, i32 } %32
}